target datalayout = "e-m:e-p270:32:32-p271:32:32-p272:64:64-i64:64-i128:128-f80:128-n8:16:32:64-S128"
target triple = "x86_64-pc-linux-gnu"

%struct.SDL_HIDAPI_Device = type { ptr, ptr, ptr, ptr, i16, i16, i16, ptr, %struct.SDL_GUID, i32, i32, i32, i32, i16, i16, i8, i32, i32, i32, ptr, ptr, ptr, ptr, %struct.SDL_AtomicInt, i32, ptr, i8, i8, i8, ptr, i32, ptr, ptr }
%struct.SDL_GUID = type { [16 x i8] }
%struct.SDL_AtomicInt = type { i32 }
%struct.SDL_Driver8BitDo_Context = type { i8, i8, i8, i8, i8, i8, i8, i8, i8, [6 x i8], i16, i16, float, float, [64 x i8], i64 }

@.str.6 = private unnamed_addr constant [32 x i8] c"That operation is not supported\00", align 1

; Function Attrs: nounwind uwtable
define internal zeroext i1 @HIDAPI_Driver8BitDo_SetJoystickSensorsEnabled(ptr noundef %0, ptr noundef %1, i1 noundef zeroext %2) #0 {
  %4 = alloca i1, align 1
  %5 = alloca ptr, align 8
  %6 = alloca ptr, align 8
  %7 = alloca i8, align 1
  %8 = alloca ptr, align 8
  %9 = alloca i32, align 4
  store ptr %0, ptr %5, align 8
  store ptr %1, ptr %6, align 8
  %10 = zext i1 %2 to i8
  store i8 %10, ptr %7, align 1
  call void @llvm.lifetime.start.p0(i64 8, ptr %8) #6
  %11 = load ptr, ptr %5, align 8
  %12 = getelementptr inbounds nuw %struct.SDL_HIDAPI_Device, ptr %11, i32 0, i32 20
  %13 = load ptr, ptr %12, align 8
  store ptr %13, ptr %8, align 8
  %14 = load ptr, ptr %8, align 8
  %15 = getelementptr inbounds nuw %struct.SDL_Driver8BitDo_Context, ptr %14, i32 0, i32 0
  %16 = load i8, ptr %15, align 8, !range !6, !noundef !7
  %17 = trunc i8 %16 to i1
  br i1 %17, label %18, label %24

18:                                               ; preds = %3
  %19 = load i8, ptr %7, align 1, !range !6, !noundef !7
  %20 = trunc i8 %19 to i1
  %21 = load ptr, ptr %8, align 8
  %22 = getelementptr inbounds nuw %struct.SDL_Driver8BitDo_Context, ptr %21, i32 0, i32 1
  %23 = zext i1 %20 to i8
  store i8 %23, ptr %22, align 1
  store i1 true, ptr %4, align 1
  store i32 1, ptr %9, align 4
  br label %26

24:                                               ; preds = %3
  %25 = call zeroext i1 (ptr, ...) @SDL_SetError_REAL(ptr noundef @.str.6)
  store i1 %25, ptr %4, align 1
  store i32 1, ptr %9, align 4
  br label %26

26:                                               ; preds = %24, %18
  call void @llvm.lifetime.end.p0(i64 8, ptr %8) #6
  %27 = load i1, ptr %4, align 1
  ret i1 %27
}