; Function Attrs: nounwind uwtable
define internal zeroext i1 @HIDAPI_Driver8BitDo_SetJoystickSensorsEnabled(ptr noundef readonly captures(none) %0, ptr readnone captures(none) %1, i1 noundef zeroext %2) #0 {
  %4 = getelementptr inbounds nuw i8, ptr %0, i64 112
  %5 = load ptr, ptr %4, align 8
  %6 = load i8, ptr %5, align 8, !range !6, !noundef !7
  %7 = trunc nuw i8 %6 to i1
  br i1 %7, label %8, label %11

8:                                                ; preds = %3
  %9 = zext i1 %2 to i8
  %10 = getelementptr inbounds nuw i8, ptr %5, i64 1
  store i8 %9, ptr %10, align 1
  br label %13

11:                                               ; preds = %3
  %12 = tail call zeroext i1 (ptr, ...) @SDL_SetError_REAL(ptr noundef nonnull @.str.6) #9
  br label %13

13:                                               ; preds = %11, %8
  %.0 = phi i1 [ true, %8 ], [ %12, %11 ]
  ret i1 %.0
}